target datalayout = "e-m:e-p270:32:32-p271:32:32-p272:64:64-i64:64-i128:128-f80:128-n8:16:32:64-S128"
target triple = "x86_64-pc-linux-gnu"

@.str.219 = private unnamed_addr constant [18 x i8] c"GGML_NO_BACKTRACE\00", align 1
@.str.220 = private unnamed_addr constant [10 x i8] c"attach %d\00", align 1
@.str.221 = private unnamed_addr constant [4 x i8] c"gdb\00", align 1
@.str.222 = private unnamed_addr constant [8 x i8] c"--batch\00", align 1
@.str.223 = private unnamed_addr constant [4 x i8] c"-ex\00", align 1
@.str.224 = private unnamed_addr constant [21 x i8] c"set style enabled on\00", align 1
@.str.225 = private unnamed_addr constant [35 x i8] c"bt -frame-info source-and-location\00", align 1
@.str.226 = private unnamed_addr constant [7 x i8] c"detach\00", align 1
@.str.227 = private unnamed_addr constant [5 x i8] c"quit\00", align 1
@.str.228 = private unnamed_addr constant [5 x i8] c"lldb\00", align 1
@.str.229 = private unnamed_addr constant [3 x i8] c"-o\00", align 1
@.str.230 = private unnamed_addr constant [3 x i8] c"bt\00", align 1
@.str.231 = private unnamed_addr constant [3 x i8] c"-p\00", align 1

; Function Attrs: nounwind uwtable
define internal void @ggml_print_backtrace_symbols() #5 {
  %1 = alloca [100 x ptr], align 16
  %2 = alloca i32, align 4
  call void @llvm.lifetime.start.p0(i64 800, ptr %1) #14
  call void @llvm.lifetime.start.p0(i64 4, ptr %2) #14
  %3 = getelementptr inbounds [100 x ptr], ptr %1, i64 0, i64 0
  %4 = call i32 @backtrace(ptr noundef %3, i32 noundef 100)
  store i32 %4, ptr %2, align 4, !tbaa !8
  %5 = getelementptr inbounds [100 x ptr], ptr %1, i64 0, i64 0
  %6 = load i32, ptr %2, align 4, !tbaa !8
  call void @backtrace_symbols_fd(ptr noundef %5, i32 noundef %6, i32 noundef 2) #14
  call void @llvm.lifetime.end.p0(i64 4, ptr %2) #14
  call void @llvm.lifetime.end.p0(i64 800, ptr %1) #14
  ret void
}

; Function Attrs: nounwind uwtable
define internal void @ggml_print_backtrace() #5 {
  %1 = alloca ptr, align 8
  %2 = alloca i32, align 4
  %3 = alloca [32 x i8], align 16
  %4 = alloca i32, align 4
  %5 = alloca i32, align 4
  call void @llvm.lifetime.start.p0(i64 8, ptr %1) #14
  %6 = call ptr @getenv(ptr noundef @.str.219) #14
  store ptr %6, ptr %1, align 8, !tbaa !3
  %7 = load ptr, ptr %1, align 8, !tbaa !3
  %8 = icmp ne ptr %7, null
  br i1 %8, label %9, label %10

9:                                                ; preds = %0
  store i32 1, ptr %2, align 4
  br label %37

10:                                               ; preds = %0
  call void @llvm.lifetime.start.p0(i64 32, ptr %3) #14
  %11 = getelementptr inbounds [32 x i8], ptr %3, i64 0, i64 0
  %12 = call i32 @getpid() #14
  %13 = call i32 (ptr, i64, ptr, ...) @snprintf(ptr noundef %11, i64 noundef 32, ptr noundef @.str.220, i32 noundef %12) #14
  call void @llvm.lifetime.start.p0(i64 4, ptr %4) #14
  %14 = call i32 @fork() #14
  store i32 %14, ptr %4, align 4, !tbaa !8
  %15 = load i32, ptr %4, align 4, !tbaa !8
  %16 = icmp eq i32 %15, 0
  br i1 %16, label %17, label %22

17:                                               ; preds = %10
  %18 = getelementptr inbounds [32 x i8], ptr %3, i64 0, i64 0
  %19 = call i32 (ptr, ptr, ...) @execlp(ptr noundef @.str.221, ptr noundef @.str.221, ptr noundef @.str.222, ptr noundef @.str.223, ptr noundef @.str.224, ptr noundef @.str.223, ptr noundef %18, ptr noundef @.str.223, ptr noundef @.str.225, ptr noundef @.str.223, ptr noundef @.str.226, ptr noundef @.str.223, ptr noundef @.str.227, ptr noundef null) #14
  %20 = getelementptr inbounds [32 x i8], ptr %3, i64 0, i64 0
  %21 = call i32 (ptr, ptr, ...) @execlp(ptr noundef @.str.228, ptr noundef @.str.228, ptr noundef @.str.222, ptr noundef @.str.229, ptr noundef @.str.230, ptr noundef @.str.229, ptr noundef @.str.227, ptr noundef @.str.231, ptr noundef %20, ptr noundef null) #14
  call void @exit(i32 noundef 1) #15
  unreachable

22:                                               ; preds = %10
  call void @llvm.lifetime.start.p0(i64 4, ptr %5) #14
  %23 = load i32, ptr %4, align 4, !tbaa !8
  %24 = call i32 @waitpid(i32 noundef %23, ptr noundef %5, i32 noundef 0)
  %25 = load i32, ptr %5, align 4, !tbaa !8
  %26 = and i32 %25, 127
  %27 = icmp eq i32 %26, 0
  br i1 %27, label %28, label %35

28:                                               ; preds = %22
  %29 = load i32, ptr %5, align 4, !tbaa !8
  %30 = and i32 %29, 65280
  %31 = ashr i32 %30, 8
  %32 = icmp eq i32 %31, 1
  br i1 %32, label %33, label %34

33:                                               ; preds = %28
  call void @ggml_print_backtrace_symbols()
  br label %34

34:                                               ; preds = %33, %28
  br label %35

35:                                               ; preds = %34, %22
  call void @llvm.lifetime.end.p0(i64 4, ptr %5) #14
  br label %36

36:                                               ; preds = %35
  call void @llvm.lifetime.end.p0(i64 4, ptr %4) #14
  call void @llvm.lifetime.end.p0(i64 32, ptr %3) #14
  store i32 0, ptr %2, align 4
  br label %37

37:                                               ; preds = %36, %9
  call void @llvm.lifetime.end.p0(i64 8, ptr %1) #14
  %38 = load i32, ptr %2, align 4
  switch i32 %38, label %40 [
    i32 0, label %39
    i32 1, label %39
  ]

39:                                               ; preds = %37, %37
  ret void

40:                                               ; preds = %37
  unreachable
}