; Function Attrs: nounwind uwtable
define internal fastcc void @ggml_print_backtrace() unnamed_addr #4 {
  %1 = alloca [100 x ptr], align 16
  %2 = alloca [32 x i8], align 16
  %3 = alloca i32, align 4
  %4 = tail call ptr @getenv(ptr noundef nonnull @.str.219) #42
  %.not = icmp eq ptr %4, null
  br i1 %.not, label %5, label %20

5:                                                ; preds = %0
  call void @llvm.lifetime.start.p0(i64 32, ptr nonnull %2) #42
  %6 = tail call i32 @getpid() #42
  %7 = call i32 (ptr, i64, ptr, ...) @snprintf(ptr noundef nonnull dereferenceable(1) %2, i64 noundef 32, ptr noundef nonnull @.str.220, i32 noundef %6) #42
  %8 = tail call i32 @fork() #42
  %9 = icmp eq i32 %8, 0
  br i1 %9, label %10, label %13

10:                                               ; preds = %5
  %11 = call i32 (ptr, ptr, ...) @execlp(ptr noundef nonnull @.str.221, ptr noundef nonnull @.str.221, ptr noundef nonnull @.str.222, ptr noundef nonnull @.str.223, ptr noundef nonnull @.str.224, ptr noundef nonnull @.str.223, ptr noundef nonnull %2, ptr noundef nonnull @.str.223, ptr noundef nonnull @.str.225, ptr noundef nonnull @.str.223, ptr noundef nonnull @.str.226, ptr noundef nonnull @.str.223, ptr noundef nonnull @.str.227, ptr noundef null) #42
  %12 = call i32 (ptr, ptr, ...) @execlp(ptr noundef nonnull @.str.228, ptr noundef nonnull @.str.228, ptr noundef nonnull @.str.222, ptr noundef nonnull @.str.229, ptr noundef nonnull @.str.230, ptr noundef nonnull @.str.229, ptr noundef nonnull @.str.227, ptr noundef nonnull @.str.231, ptr noundef nonnull %2, ptr noundef null) #42
  call void @exit(i32 noundef 1) #44
  unreachable

13:                                               ; preds = %5
  call void @llvm.lifetime.start.p0(i64 4, ptr nonnull %3) #42
  %14 = call i32 @waitpid(i32 noundef %8, ptr noundef nonnull %3, i32 noundef 0) #42
  %15 = load i32, ptr %3, align 4, !tbaa !8
  %16 = and i32 %15, 65407
  %or.cond = icmp eq i32 %16, 256
  br i1 %or.cond, label %17, label %19

17:                                               ; preds = %13
  call void @llvm.lifetime.start.p0(i64 800, ptr nonnull %1) #42
  %18 = call i32 @backtrace(ptr noundef nonnull %1, i32 noundef 100) #42
  call void @backtrace_symbols_fd(ptr noundef nonnull %1, i32 noundef %18, i32 noundef 2) #42
  call void @llvm.lifetime.end.p0(i64 800, ptr nonnull %1) #42
  br label %19

19:                                               ; preds = %17, %13
  call void @llvm.lifetime.end.p0(i64 4, ptr nonnull %3) #42
  call void @llvm.lifetime.end.p0(i64 32, ptr nonnull %2) #42
  br label %20

20:                                               ; preds = %0, %19
  ret void
}